; Function Attrs: mustprogress uwtable
define dso_local void @_ZN4absl5Mutex10ReaderLockEv(ptr noundef nonnull align 8 dereferenceable(8) %0) local_unnamed_addr #0 align 2 {
  %2 = load atomic i64, ptr %0 monotonic, align 8
  %3 = and i64 %2, 28
  %.not4 = icmp eq i64 %3, 0
  br i1 %.not4, label %.lr.ph, label %._crit_edge, !prof !84

._crit_edge:                                      ; preds = %_ZNSt13__atomic_baseIlE21compare_exchange_weakERllSt12memory_orderS2_.exit, %1
  tail call void @_ZN4absl5Mutex8LockSlowEPKNS_6MuHowSEPKNS_9ConditionEi(ptr noundef nonnull align 8 dereferenceable(8) %0, ptr noundef nonnull @_ZN4abslL8kSharedSE, ptr noundef null, i32 noundef 0) #29
  br label %_ZNSt13__atomic_baseIlE21compare_exchange_weakERllSt12memory_orderS2_.exit.thread

.lr.ph:                                           ; preds = %1, %_ZNSt13__atomic_baseIlE21compare_exchange_weakERllSt12memory_orderS2_.exit
  %.05 = phi i64 [ %8, %_ZNSt13__atomic_baseIlE21compare_exchange_weakERllSt12memory_orderS2_.exit ], [ %2, %1 ]
  %4 = or i64 %.05, 1
  %5 = add nsw i64 %4, 256
  %6 = cmpxchg weak ptr %0, i64 %.05, i64 %5 acquire monotonic, align 8
  %7 = extractvalue { i64, i1 } %6, 1
  br i1 %7, label %_ZNSt13__atomic_baseIlE21compare_exchange_weakERllSt12memory_orderS2_.exit.thread, label %_ZNSt13__atomic_baseIlE21compare_exchange_weakERllSt12memory_orderS2_.exit

_ZNSt13__atomic_baseIlE21compare_exchange_weakERllSt12memory_orderS2_.exit: ; preds = %.lr.ph
  %8 = extractvalue { i64, i1 } %6, 0
  %9 = and i64 %8, 28
  %.not = icmp eq i64 %9, 0
  br i1 %.not, label %.lr.ph, label %._crit_edge, !prof !85

_ZNSt13__atomic_baseIlE21compare_exchange_weakERllSt12memory_orderS2_.exit.thread: ; preds = %.lr.ph, %._crit_edge
  ret void
}